target datalayout = "e-m:e-p270:32:32-p271:32:32-p272:64:64-i64:64-i128:128-f80:128-n8:16:32:64-S128"
target triple = "x86_64-unknown-linux-gnu"

%struct.SiFivePwmState = type { %struct.SysBusDevice, %struct.MemoryRegion, [4 x %struct.QEMUTimer], i64, i64, i32, [4 x i32], [4 x ptr] }
%struct.SysBusDevice = type { %struct.DeviceState, i32, [32 x %struct.anon], i32, [32 x i32] }
%struct.DeviceState = type { %struct.Object, ptr, ptr, i8, i8, i64, ptr, i32, i8, ptr, %struct.NamedGPIOListHead, %struct.NamedClockListHead, %struct.BusStateHead, i32, i32, i32, %struct.ResettableState, ptr, %struct.MemReentrancyGuard }
%struct.Object = type { ptr, ptr, ptr, i32, ptr }
%struct.NamedGPIOListHead = type { ptr }
%struct.NamedClockListHead = type { ptr }
%struct.BusStateHead = type { ptr }
%struct.ResettableState = type { i32, i8, i8 }
%struct.MemReentrancyGuard = type { i8 }
%struct.anon = type { i64, ptr }
%struct.MemoryRegion = type { %struct.Object, i8, i8, i8, i8, i8, i8, i8, i8, i8, i8, ptr, ptr, ptr, ptr, ptr, ptr, i32, i128, i64, ptr, i64, i8, i8, i8, i8, i8, ptr, i64, i32, %union.anon, %union.anon.0, %union.anon.1, ptr, i32, ptr, ptr, i8 }
%union.anon = type { %struct.QTailQLink }
%struct.QTailQLink = type { ptr, ptr }
%union.anon.0 = type { %struct.QTailQLink }
%union.anon.1 = type { %struct.QTailQLink }
%struct.QEMUTimer = type { i64, ptr, ptr, ptr, ptr, i32, i32 }
%struct.timeval = type { i64, i64 }

@trace_events_enabled_count = external global i32, align 4
@message_with_timestamp = external global i8, align 1
@qemu_loglevel = external global i32, align 4
@_TRACE_SIFIVE_PWM_INTERRUPT_DSTATE = external global i16, align 2
@.str.21 = private unnamed_addr constant [48 x i8] c"%d@%zu.%06zu:sifive_pwm_interrupt Interrupt %d\0A\00", align 1
@.str.22 = private unnamed_addr constant [35 x i8] c"sifive_pwm_interrupt Interrupt %d\0A\00", align 1

; Function Attrs: nounwind sspstrong uwtable
define internal zeroext i1 @qemu_loglevel_mask(i32 noundef %mask) #0 {
entry:
  %mask.addr = alloca i32, align 4
  store i32 %mask, ptr %mask.addr, align 4
  %0 = load i32, ptr @qemu_loglevel, align 4
  %1 = load i32, ptr %mask.addr, align 4
  %and = and i32 %0, %1
  %cmp = icmp ne i32 %and, 0
  ret i1 %cmp
}

; Function Attrs: nounwind sspstrong uwtable
define internal void @_nocheck__trace_sifive_pwm_interrupt(i32 noundef %num) #0 {
entry:
  %num.addr = alloca i32, align 4
  %_now = alloca %struct.timeval, align 8
  store i32 %num, ptr %num.addr, align 4
  %0 = load i32, ptr @trace_events_enabled_count, align 4
  %tobool = icmp ne i32 %0, 0
  %lnot = xor i1 %tobool, true
  %lnot1 = xor i1 %lnot, true
  %lnot.ext = zext i1 %lnot1 to i32
  %conv = sext i32 %lnot.ext to i64
  %tobool2 = icmp ne i64 %conv, 0
  br i1 %tobool2, label %land.lhs.true, label %if.end11

land.lhs.true:                                    ; preds = %entry
  %1 = load i16, ptr @_TRACE_SIFIVE_PWM_INTERRUPT_DSTATE, align 2
  %conv3 = zext i16 %1 to i32
  %tobool4 = icmp ne i32 %conv3, 0
  br i1 %tobool4, label %land.lhs.true5, label %if.end11

land.lhs.true5:                                   ; preds = %land.lhs.true
  %call = call zeroext i1 @qemu_loglevel_mask(i32 noundef 32768)
  br i1 %call, label %if.then, label %if.end11

if.then:                                          ; preds = %land.lhs.true5
  %2 = load i8, ptr @message_with_timestamp, align 1
  %tobool7 = trunc i8 %2 to i1
  br i1 %tobool7, label %if.then8, label %if.else

if.then8:                                         ; preds = %if.then
  %call9 = call i32 @gettimeofday(ptr noundef %_now, ptr noundef null) #3
  %call10 = call i32 @qemu_get_thread_id()
  %tv_sec = getelementptr inbounds %struct.timeval, ptr %_now, i32 0, i32 0
  %3 = load i64, ptr %tv_sec, align 8
  %tv_usec = getelementptr inbounds %struct.timeval, ptr %_now, i32 0, i32 1
  %4 = load i64, ptr %tv_usec, align 8
  %5 = load i32, ptr %num.addr, align 4
  call void (ptr, ...) @qemu_log(ptr noundef @.str.21, i32 noundef %call10, i64 noundef %3, i64 noundef %4, i32 noundef %5)
  br label %if.end

if.else:                                          ; preds = %if.then
  %6 = load i32, ptr %num.addr, align 4
  call void (ptr, ...) @qemu_log(ptr noundef @.str.22, i32 noundef %6)
  br label %if.end

if.end:                                           ; preds = %if.else, %if.then8
  br label %if.end11

if.end11:                                         ; preds = %if.end, %land.lhs.true5, %land.lhs.true, %entry
  ret void
}

; Function Attrs: nounwind sspstrong uwtable
define internal i64 @muldiv64(i64 noundef %a, i32 noundef %b, i32 noundef %c) #0 {
entry:
  %a.addr = alloca i64, align 8
  %b.addr = alloca i32, align 4
  %c.addr = alloca i32, align 4
  store i64 %a, ptr %a.addr, align 8
  store i32 %b, ptr %b.addr, align 4
  store i32 %c, ptr %c.addr, align 4
  %0 = load i64, ptr %a.addr, align 8
  %conv = zext i64 %0 to i128
  %1 = load i32, ptr %b.addr, align 4
  %conv1 = zext i32 %1 to i128
  %mul = mul i128 %conv, %conv1
  %2 = load i32, ptr %c.addr, align 4
  %conv2 = zext i32 %2 to i128
  %div = sdiv i128 %mul, %conv2
  %conv3 = trunc i128 %div to i64
  ret i64 %conv3
}

; Function Attrs: nounwind sspstrong uwtable
define internal void @qemu_irq_raise(ptr noundef %irq) #0 {
entry:
  %irq.addr = alloca ptr, align 8
  store ptr %irq, ptr %irq.addr, align 8
  %0 = load ptr, ptr %irq.addr, align 8
  call void @qemu_set_irq(ptr noundef %0, i32 noundef 1)
  ret void
}

; Function Attrs: nounwind sspstrong uwtable
define internal void @trace_sifive_pwm_interrupt(i32 noundef %num) #0 {
entry:
  %num.addr = alloca i32, align 4
  store i32 %num, ptr %num.addr, align 4
  %0 = load i32, ptr %num.addr, align 4
  call void @_nocheck__trace_sifive_pwm_interrupt(i32 noundef %0)
  ret void
}

; Function Attrs: nounwind sspstrong uwtable
define internal i64 @sifive_pwm_ns_to_ticks(ptr noundef %s, i64 noundef %time) #0 {
entry:
  %s.addr = alloca ptr, align 8
  %time.addr = alloca i64, align 8
  store ptr %s, ptr %s.addr, align 8
  store i64 %time, ptr %time.addr, align 8
  %0 = load i64, ptr %time.addr, align 8
  %1 = load ptr, ptr %s.addr, align 8
  %freq_hz = getelementptr inbounds %struct.SiFivePwmState, ptr %1, i32 0, i32 4
  %2 = load i64, ptr %freq_hz, align 8
  %conv = trunc i64 %2 to i32
  %call = call i64 @muldiv64(i64 noundef %0, i32 noundef %conv, i32 noundef 1000000000)
  ret i64 %call
}

; Function Attrs: nounwind sspstrong uwtable
define internal void @sifive_pwm_interrupt(ptr noundef %s, i32 noundef %num) #0 {
entry:
  %s.addr = alloca ptr, align 8
  %num.addr = alloca i32, align 4
  %now = alloca i64, align 8
  %was_incrementing = alloca i8, align 1
  store ptr %s, ptr %s.addr, align 8
  store i32 %num, ptr %num.addr, align 4
  %0 = load ptr, ptr %s.addr, align 8
  %call = call i64 @qemu_clock_get_ns(i32 noundef 1)
  %call1 = call i64 @sifive_pwm_ns_to_ticks(ptr noundef %0, i64 noundef %call)
  store i64 %call1, ptr %now, align 8
  %1 = load ptr, ptr %s.addr, align 8
  %pwmcfg = getelementptr inbounds %struct.SiFivePwmState, ptr %1, i32 0, i32 5
  %2 = load i32, ptr %pwmcfg, align 16
  %and = and i32 %2, 8192
  %tobool = icmp ne i32 %and, 0
  br i1 %tobool, label %lor.end, label %lor.rhs

lor.rhs:                                          ; preds = %entry
  %3 = load ptr, ptr %s.addr, align 8
  %pwmcfg2 = getelementptr inbounds %struct.SiFivePwmState, ptr %3, i32 0, i32 5
  %4 = load i32, ptr %pwmcfg2, align 16
  %and3 = and i32 %4, 4096
  %tobool4 = icmp ne i32 %and3, 0
  br label %lor.end

lor.end:                                          ; preds = %lor.rhs, %entry
  %5 = phi i1 [ true, %entry ], [ %tobool4, %lor.rhs ]
  %frombool = zext i1 %5 to i8
  store i8 %frombool, ptr %was_incrementing, align 1
  %6 = load i32, ptr %num.addr, align 4
  call void @trace_sifive_pwm_interrupt(i32 noundef %6)
  %7 = load i32, ptr %num.addr, align 4
  %shl = shl i32 268435456, %7
  %8 = load ptr, ptr %s.addr, align 8
  %pwmcfg5 = getelementptr inbounds %struct.SiFivePwmState, ptr %8, i32 0, i32 5
  %9 = load i32, ptr %pwmcfg5, align 16
  %or = or i32 %9, %shl
  store i32 %or, ptr %pwmcfg5, align 16
  %10 = load ptr, ptr %s.addr, align 8
  %irqs = getelementptr inbounds %struct.SiFivePwmState, ptr %10, i32 0, i32 7
  %11 = load i32, ptr %num.addr, align 4
  %idxprom = sext i32 %11 to i64
  %arrayidx = getelementptr [4 x ptr], ptr %irqs, i64 0, i64 %idxprom
  %12 = load ptr, ptr %arrayidx, align 8
  call void @qemu_irq_raise(ptr noundef %12)
  %13 = load ptr, ptr %s.addr, align 8
  %pwmcfg6 = getelementptr inbounds %struct.SiFivePwmState, ptr %13, i32 0, i32 5
  %14 = load i32, ptr %pwmcfg6, align 16
  %and7 = and i32 %14, 512
  %tobool8 = icmp ne i32 %and7, 0
  br i1 %tobool8, label %land.lhs.true, label %if.end14

land.lhs.true:                                    ; preds = %lor.end
  %15 = load i32, ptr %num.addr, align 4
  %cmp = icmp eq i32 %15, 0
  br i1 %cmp, label %if.then, label %if.end14

if.then:                                          ; preds = %land.lhs.true
  %16 = load ptr, ptr %s.addr, align 8
  %pwmcfg9 = getelementptr inbounds %struct.SiFivePwmState, ptr %16, i32 0, i32 5
  %17 = load i32, ptr %pwmcfg9, align 16
  %and10 = and i32 %17, -8193
  store i32 %and10, ptr %pwmcfg9, align 16
  %18 = load i8, ptr %was_incrementing, align 1
  %tobool11 = trunc i8 %18 to i1
  br i1 %tobool11, label %if.then12, label %if.else

if.then12:                                        ; preds = %if.then
  %19 = load i64, ptr %now, align 8
  %20 = load ptr, ptr %s.addr, align 8
  %tick_offset = getelementptr inbounds %struct.SiFivePwmState, ptr %20, i32 0, i32 3
  store i64 %19, ptr %tick_offset, align 16
  br label %if.end

if.else:                                          ; preds = %if.then
  %21 = load ptr, ptr %s.addr, align 8
  %tick_offset13 = getelementptr inbounds %struct.SiFivePwmState, ptr %21, i32 0, i32 3
  store i64 0, ptr %tick_offset13, align 16
  br label %if.end

if.end:                                           ; preds = %if.else, %if.then12
  br label %if.end14

if.end14:                                         ; preds = %if.end, %land.lhs.true, %lor.end
  %22 = load i8, ptr %was_incrementing, align 1
  %tobool15 = trunc i8 %22 to i1
  br i1 %tobool15, label %land.lhs.true16, label %if.end24

land.lhs.true16:                                  ; preds = %if.end14
  %23 = load i64, ptr %now, align 8
  %and17 = and i64 %23, 2147483647
  %24 = load ptr, ptr %s.addr, align 8
  %tick_offset18 = getelementptr inbounds %struct.SiFivePwmState, ptr %24, i32 0, i32 3
  %25 = load i64, ptr %tick_offset18, align 16
  %and19 = and i64 %25, 2147483647
  %cmp20 = icmp ult i64 %and17, %and19
  br i1 %cmp20, label %if.then21, label %if.end24

if.then21:                                        ; preds = %land.lhs.true16
  %26 = load ptr, ptr %s.addr, align 8
  %pwmcfg22 = getelementptr inbounds %struct.SiFivePwmState, ptr %26, i32 0, i32 5
  %27 = load i32, ptr %pwmcfg22, align 16
  %and23 = and i32 %27, -8193
  store i32 %and23, ptr %pwmcfg22, align 16
  br label %if.end24

if.end24:                                         ; preds = %if.then21, %land.lhs.true16, %if.end14
  %28 = load ptr, ptr %s.addr, align 8
  call void @sifive_pwm_set_alarms(ptr noundef %28)
  %29 = load i8, ptr %was_incrementing, align 1
  %tobool25 = trunc i8 %29 to i1
  br i1 %tobool25, label %land.lhs.true26, label %if.end37

land.lhs.true26:                                  ; preds = %if.end24
  %30 = load ptr, ptr %s.addr, align 8
  %pwmcfg27 = getelementptr inbounds %struct.SiFivePwmState, ptr %30, i32 0, i32 5
  %31 = load i32, ptr %pwmcfg27, align 16
  %and28 = and i32 %31, 8192
  %tobool29 = icmp ne i32 %and28, 0
  br i1 %tobool29, label %if.end37, label %lor.lhs.false

lor.lhs.false:                                    ; preds = %land.lhs.true26
  %32 = load ptr, ptr %s.addr, align 8
  %pwmcfg30 = getelementptr inbounds %struct.SiFivePwmState, ptr %32, i32 0, i32 5
  %33 = load i32, ptr %pwmcfg30, align 16
  %and31 = and i32 %33, 4096
  %tobool32 = icmp ne i32 %and31, 0
  br i1 %tobool32, label %if.end37, label %if.then33

if.then33:                                        ; preds = %lor.lhs.false
  %34 = load i64, ptr %now, align 8
  %35 = load ptr, ptr %s.addr, align 8
  %tick_offset34 = getelementptr inbounds %struct.SiFivePwmState, ptr %35, i32 0, i32 3
  %36 = load i64, ptr %tick_offset34, align 16
  %sub = sub i64 %34, %36
  %and35 = and i64 %sub, 2147483647
  %37 = load ptr, ptr %s.addr, align 8
  %tick_offset36 = getelementptr inbounds %struct.SiFivePwmState, ptr %37, i32 0, i32 3
  store i64 %and35, ptr %tick_offset36, align 16
  br label %if.end37

if.end37:                                         ; preds = %if.then33, %lor.lhs.false, %land.lhs.true26, %if.end24
  ret void
}