; Function Attrs: nounwind sspstrong uwtable
define internal fastcc void @sifive_pwm_interrupt(ptr noundef %s, i32 noundef range(i32 0, 4) %num) unnamed_addr #0 {
entry:
  %_now.i.i = alloca %struct.timeval, align 8
  %call = tail call i64 @qemu_clock_get_ns(i32 noundef 1) #6
  %0 = getelementptr i8, ptr %s, i64 1288
  %s.val = load i64, ptr %0, align 8
  %conv.i.i = zext i64 %call to i128
  %conv.mask.i = and i64 %s.val, 4294967295
  %conv1.i.i = zext nneg i64 %conv.mask.i to i128
  %mul.i.i = mul nuw nsw i128 %conv1.i.i, %conv.i.i
  %div.i.i = udiv i128 %mul.i.i, 1000000000
  %conv3.i.i = trunc i128 %div.i.i to i64
  %pwmcfg = getelementptr inbounds nuw i8, ptr %s, i64 1296
  %1 = load i32, ptr %pwmcfg, align 16
  %2 = and i32 %1, 12288
  %.not = icmp eq i32 %2, 0
  call void @llvm.lifetime.start.p0(i64 16, ptr nonnull %_now.i.i)
  %3 = load i32, ptr @trace_events_enabled_count, align 4
  %tobool.i.i = icmp ne i32 %3, 0
  %4 = load i16, ptr @_TRACE_SIFIVE_PWM_INTERRUPT_DSTATE, align 2
  %tobool4.i.i = icmp ne i16 %4, 0
  %or.cond.i.i = select i1 %tobool.i.i, i1 %tobool4.i.i, i1 false
  br i1 %or.cond.i.i, label %land.lhs.true5.i.i, label %trace_sifive_pwm_interrupt.exit

land.lhs.true5.i.i:                               ; preds = %entry
  %5 = load i32, ptr @qemu_loglevel, align 4
  %and.i.i.i = and i32 %5, 32768
  %cmp.i.not.i.i = icmp eq i32 %and.i.i.i, 0
  br i1 %cmp.i.not.i.i, label %trace_sifive_pwm_interrupt.exit, label %if.then.i.i

if.then.i.i:                                      ; preds = %land.lhs.true5.i.i
  %6 = load i8, ptr @message_with_timestamp, align 1
  %tobool7.i.i = trunc i8 %6 to i1
  br i1 %tobool7.i.i, label %if.then8.i.i, label %if.else.i.i

if.then8.i.i:                                     ; preds = %if.then.i.i
  %call9.i.i = call i32 @gettimeofday(ptr noundef nonnull %_now.i.i, ptr noundef null) #6
  %call10.i.i = tail call i32 @qemu_get_thread_id() #6
  %7 = load i64, ptr %_now.i.i, align 8
  %tv_usec.i.i = getelementptr inbounds nuw i8, ptr %_now.i.i, i64 8
  %8 = load i64, ptr %tv_usec.i.i, align 8
  tail call void (ptr, ...) @qemu_log(ptr noundef nonnull @.str.21, i32 noundef %call10.i.i, i64 noundef %7, i64 noundef %8, i32 noundef range(i32 0, 4) %num) #6
  br label %trace_sifive_pwm_interrupt.exit

if.else.i.i:                                      ; preds = %if.then.i.i
  tail call void (ptr, ...) @qemu_log(ptr noundef nonnull @.str.22, i32 noundef range(i32 0, 4) %num) #6
  br label %trace_sifive_pwm_interrupt.exit

trace_sifive_pwm_interrupt.exit:                  ; preds = %entry, %land.lhs.true5.i.i, %if.then8.i.i, %if.else.i.i
  call void @llvm.lifetime.end.p0(i64 16, ptr nonnull %_now.i.i)
  %shl = shl nuw i32 268435456, %num
  %9 = load i32, ptr %pwmcfg, align 16
  %or = or i32 %9, %shl
  store i32 %or, ptr %pwmcfg, align 16
  %irqs = getelementptr inbounds nuw i8, ptr %s, i64 1320
  %idxprom = zext nneg i32 %num to i64
  %arrayidx = getelementptr [4 x ptr], ptr %irqs, i64 0, i64 %idxprom
  %10 = load ptr, ptr %arrayidx, align 8
  tail call void @qemu_set_irq(ptr noundef %10, i32 noundef 1) #6
  %11 = load i32, ptr %pwmcfg, align 16
  %and7 = and i32 %11, 512
  %tobool8 = icmp ne i32 %and7, 0
  %cmp = icmp eq i32 %num, 0
  %or.cond = and i1 %cmp, %tobool8
  br i1 %or.cond, label %if.then, label %if.end14

if.then:                                          ; preds = %trace_sifive_pwm_interrupt.exit
  %and10 = and i32 %11, -8193
  store i32 %and10, ptr %pwmcfg, align 16
  %tick_offset13 = getelementptr inbounds nuw i8, ptr %s, i64 1280
  br i1 %.not, label %if.end14.thread24, label %if.end14.thread

if.end14.thread:                                  ; preds = %if.then
  store i64 %conv3.i.i, ptr %tick_offset13, align 16
  br label %land.lhs.true16

if.end14.thread24:                                ; preds = %if.then
  store i64 0, ptr %tick_offset13, align 16
  br label %if.end37.critedge

if.end14:                                         ; preds = %trace_sifive_pwm_interrupt.exit
  br i1 %.not, label %if.end37.critedge, label %if.end14.land.lhs.true16_crit_edge

if.end14.land.lhs.true16_crit_edge:               ; preds = %if.end14
  %tick_offset18.phi.trans.insert = getelementptr inbounds nuw i8, ptr %s, i64 1280
  %.pre = load i64, ptr %tick_offset18.phi.trans.insert, align 16
  %12 = and i32 %11, -8193
  br label %land.lhs.true16

land.lhs.true16:                                  ; preds = %if.end14.land.lhs.true16_crit_edge, %if.end14.thread
  %and23 = phi i32 [ %12, %if.end14.land.lhs.true16_crit_edge ], [ %and10, %if.end14.thread ]
  %13 = phi i64 [ %.pre, %if.end14.land.lhs.true16_crit_edge ], [ %conv3.i.i, %if.end14.thread ]
  %and17 = and i64 %conv3.i.i, 2147483647
  %tick_offset18 = getelementptr inbounds nuw i8, ptr %s, i64 1280
  %and19 = and i64 %13, 2147483647
  %cmp20 = icmp samesign ult i64 %and17, %and19
  br i1 %cmp20, label %if.then21, label %land.lhs.true26

if.then21:                                        ; preds = %land.lhs.true16
  store i32 %and23, ptr %pwmcfg, align 16
  br label %land.lhs.true26

land.lhs.true26:                                  ; preds = %land.lhs.true16, %if.then21
  tail call fastcc void @sifive_pwm_set_alarms(ptr noundef nonnull %s)
  %14 = load i32, ptr %pwmcfg, align 16
  %15 = and i32 %14, 12288
  %or.cond23 = icmp eq i32 %15, 0
  br i1 %or.cond23, label %if.then33, label %if.end37

if.then33:                                        ; preds = %land.lhs.true26
  %16 = load i64, ptr %tick_offset18, align 16
  %sub = sub i64 %conv3.i.i, %16
  %and35 = and i64 %sub, 2147483647
  store i64 %and35, ptr %tick_offset18, align 16
  br label %if.end37

if.end37.critedge:                                ; preds = %if.end14.thread24, %if.end14
  tail call fastcc void @sifive_pwm_set_alarms(ptr noundef nonnull %s)
  br label %if.end37

if.end37:                                         ; preds = %if.end37.critedge, %if.then33, %land.lhs.true26
  ret void
}